target datalayout = "e-m:e-p270:32:32-p271:32:32-p272:64:64-i64:64-i128:128-f80:128-n8:16:32:64-S128"
target triple = "x86_64-pc-linux-gnu"

; Function Attrs: nounwind sspstrong uwtable
define i32 @raddrinfo_pthread_create(ptr noundef %0, ptr noundef %1, ptr noundef %2) #0 {
  %4 = alloca ptr, align 8
  %5 = alloca ptr, align 8
  %6 = alloca ptr, align 8
  %7 = alloca i32, align 4
  %8 = alloca i32, align 4
  store ptr %0, ptr %4, align 8, !tbaa !24
  store ptr %1, ptr %5, align 8, !tbaa !26
  store ptr %2, ptr %6, align 8, !tbaa !26
  call void @llvm.lifetime.start.p0(i64 4, ptr %7) #24
  store i32 3, ptr %7, align 4, !tbaa !27
  call void @llvm.lifetime.start.p0(i64 4, ptr %8) #24
  br label %9

9:                                                ; preds = %21, %3
  %10 = load ptr, ptr %4, align 8, !tbaa !24
  %11 = load ptr, ptr %5, align 8, !tbaa !26
  %12 = load ptr, ptr %6, align 8, !tbaa !26
  %13 = call i32 @pthread_create(ptr noundef %10, ptr noundef null, ptr noundef %11, ptr noundef %12) #24
  store i32 %13, ptr %8, align 4, !tbaa !27
  br label %14

14:                                               ; preds = %9
  %15 = load i32, ptr %8, align 4, !tbaa !27
  %16 = icmp eq i32 %15, 11
  br i1 %16, label %17, label %21

17:                                               ; preds = %14
  %18 = load i32, ptr %7, align 4, !tbaa !27
  %19 = add nsw i32 %18, -1
  store i32 %19, ptr %7, align 4, !tbaa !27
  %20 = icmp sgt i32 %18, 0
  br label %21

21:                                               ; preds = %17, %14
  %22 = phi i1 [ false, %14 ], [ %20, %17 ]
  br i1 %22, label %9, label %23, !llvm.loop !28

23:                                               ; preds = %21
  %24 = load i32, ptr %8, align 4, !tbaa !27
  call void @llvm.lifetime.end.p0(i64 4, ptr %8) #24
  call void @llvm.lifetime.end.p0(i64 4, ptr %7) #24
  ret i32 %24
}