; Function Attrs: nounwind sspstrong uwtable
define i32 @raddrinfo_pthread_create(ptr noundef %0, ptr noundef %1, ptr noundef %2) local_unnamed_addr #0 {
  br label %4

4:                                                ; preds = %4, %3
  %.0 = phi i32 [ 3, %3 ], [ %7, %4 ]
  %5 = tail call i32 @pthread_create(ptr noundef %0, ptr noundef null, ptr noundef %1, ptr noundef %2) #21
  %6 = icmp eq i32 %5, 11
  %7 = add nsw i32 %.0, -1
  %8 = icmp ne i32 %.0, 0
  %or.cond = select i1 %6, i1 %8, i1 false
  br i1 %or.cond, label %4, label %.critedge, !llvm.loop !21

.critedge:                                        ; preds = %4
  ret i32 %5
}